target datalayout = "e-m:e-p270:32:32-p271:32:32-p272:64:64-i64:64-i128:128-f80:128-n8:16:32:64-S128"
target triple = "x86_64-pc-linux-gnu"

%struct.__loadu_si128 = type { <2 x i64> }
%struct.__storeu_si128 = type { <2 x i64> }
%struct.__mm_loadl_epi64_struct = type { i64 }
%struct.__mm_storel_epi64_struct = type { i64 }

; Function Attrs: alwaysinline nounwind uwtable
define internal void @_mm_storel_epi64(ptr noundef %0, <2 x i64> noundef %1) #3 {
  %3 = alloca ptr, align 8
  %4 = alloca <2 x i64>, align 16
  store ptr %0, ptr %3, align 8, !tbaa !3
  store <2 x i64> %1, ptr %4, align 16, !tbaa !11
  %5 = load <2 x i64>, ptr %4, align 16, !tbaa !11
  %6 = extractelement <2 x i64> %5, i32 0
  %7 = load ptr, ptr %3, align 8, !tbaa !3
  %8 = getelementptr inbounds nuw %struct.__mm_storel_epi64_struct, ptr %7, i32 0, i32 0
  store i64 %6, ptr %8, align 1, !tbaa !11
  ret void
}

; Function Attrs: alwaysinline nounwind uwtable
define internal <2 x i64> @_mm_loadl_epi64(ptr noundef %0) #3 {
  %2 = alloca ptr, align 8
  %3 = alloca <2 x i64>, align 16
  store ptr %0, ptr %2, align 8, !tbaa !3
  %4 = load ptr, ptr %2, align 8, !tbaa !3
  %5 = getelementptr inbounds nuw %struct.__mm_loadl_epi64_struct, ptr %4, i32 0, i32 0
  %6 = load i64, ptr %5, align 1, !tbaa !11
  %7 = insertelement <2 x i64> poison, i64 %6, i32 0
  %8 = insertelement <2 x i64> %7, i64 0, i32 1
  store <2 x i64> %8, ptr %3, align 16, !tbaa !11
  %9 = load <2 x i64>, ptr %3, align 16, !tbaa !11
  ret <2 x i64> %9
}

; Function Attrs: alwaysinline nounwind uwtable
define internal void @_mm_storeu_si128(ptr noundef %0, <2 x i64> noundef %1) #3 {
  %3 = alloca ptr, align 8
  %4 = alloca <2 x i64>, align 16
  store ptr %0, ptr %3, align 8, !tbaa !3
  store <2 x i64> %1, ptr %4, align 16, !tbaa !11
  %5 = load <2 x i64>, ptr %4, align 16, !tbaa !11
  %6 = load ptr, ptr %3, align 8, !tbaa !3
  %7 = getelementptr inbounds nuw %struct.__storeu_si128, ptr %6, i32 0, i32 0
  store <2 x i64> %5, ptr %7, align 1, !tbaa !11
  ret void
}

; Function Attrs: alwaysinline nounwind uwtable
define internal <2 x i64> @_mm_add_epi32(<2 x i64> noundef %0, <2 x i64> noundef %1) #3 {
  %3 = alloca <2 x i64>, align 16
  %4 = alloca <2 x i64>, align 16
  store <2 x i64> %0, ptr %3, align 16, !tbaa !11
  store <2 x i64> %1, ptr %4, align 16, !tbaa !11
  %5 = load <2 x i64>, ptr %3, align 16, !tbaa !11
  %6 = bitcast <2 x i64> %5 to <4 x i32>
  %7 = load <2 x i64>, ptr %4, align 16, !tbaa !11
  %8 = bitcast <2 x i64> %7 to <4 x i32>
  %9 = add <4 x i32> %6, %8
  %10 = bitcast <4 x i32> %9 to <2 x i64>
  ret <2 x i64> %10
}

; Function Attrs: alwaysinline nounwind uwtable
define internal <2 x i64> @_mm_loadu_si128(ptr noundef %0) #3 {
  %2 = alloca ptr, align 8
  store ptr %0, ptr %2, align 8, !tbaa !3
  %3 = load ptr, ptr %2, align 8, !tbaa !3
  %4 = getelementptr inbounds nuw %struct.__loadu_si128, ptr %3, i32 0, i32 0
  %5 = load <2 x i64>, ptr %4, align 1, !tbaa !11
  ret <2 x i64> %5
}

; Function Attrs: nounwind uwtable
define internal void @AddVector_SSE2(ptr noalias noundef %0, ptr noalias noundef %1, ptr noalias noundef %2, i32 noundef %3) #1 {
  %5 = alloca ptr, align 8
  %6 = alloca ptr, align 8
  %7 = alloca ptr, align 8
  %8 = alloca i32, align 4
  %9 = alloca i32, align 4
  %10 = alloca i32, align 4
  %11 = alloca <2 x i64>, align 16
  %12 = alloca <2 x i64>, align 16
  %13 = alloca <2 x i64>, align 16
  %14 = alloca <2 x i64>, align 16
  %15 = alloca <2 x i64>, align 16
  %16 = alloca <2 x i64>, align 16
  %17 = alloca <2 x i64>, align 16
  %18 = alloca <2 x i64>, align 16
  %19 = alloca <2 x i64>, align 16
  %20 = alloca <2 x i64>, align 16
  %21 = alloca <2 x i64>, align 16
  %22 = alloca <2 x i64>, align 16
  %23 = alloca <2 x i64>, align 16
  %24 = alloca <2 x i64>, align 16
  %25 = alloca <2 x i64>, align 16
  %26 = alloca <2 x i64>, align 16
  store ptr %0, ptr %5, align 8, !tbaa !7
  store ptr %1, ptr %6, align 8, !tbaa !7
  store ptr %2, ptr %7, align 8, !tbaa !7
  store i32 %3, ptr %8, align 4, !tbaa !9
  call void @llvm.lifetime.start.p0(i64 4, ptr %9) #9
  store i32 0, ptr %9, align 4, !tbaa !9
  call void @llvm.lifetime.start.p0(i64 4, ptr %10) #9
  %27 = load i32, ptr %8, align 4, !tbaa !9
  %28 = and i32 %27, -16
  store i32 %28, ptr %10, align 4, !tbaa !9
  br label %29

29:                                               ; preds = %112, %4
  call void @llvm.lifetime.start.p0(i64 16, ptr %11) #9
  %30 = load ptr, ptr %5, align 8, !tbaa !7
  %31 = load i32, ptr %9, align 4, !tbaa !9
  %32 = add nsw i32 %31, 0
  %33 = sext i32 %32 to i64
  %34 = getelementptr inbounds i32, ptr %30, i64 %33
  %35 = call <2 x i64> @_mm_loadu_si128(ptr noundef %34)
  store <2 x i64> %35, ptr %11, align 16, !tbaa !11
  call void @llvm.lifetime.start.p0(i64 16, ptr %12) #9
  %36 = load ptr, ptr %5, align 8, !tbaa !7
  %37 = load i32, ptr %9, align 4, !tbaa !9
  %38 = add nsw i32 %37, 4
  %39 = sext i32 %38 to i64
  %40 = getelementptr inbounds i32, ptr %36, i64 %39
  %41 = call <2 x i64> @_mm_loadu_si128(ptr noundef %40)
  store <2 x i64> %41, ptr %12, align 16, !tbaa !11
  call void @llvm.lifetime.start.p0(i64 16, ptr %13) #9
  %42 = load ptr, ptr %5, align 8, !tbaa !7
  %43 = load i32, ptr %9, align 4, !tbaa !9
  %44 = add nsw i32 %43, 8
  %45 = sext i32 %44 to i64
  %46 = getelementptr inbounds i32, ptr %42, i64 %45
  %47 = call <2 x i64> @_mm_loadu_si128(ptr noundef %46)
  store <2 x i64> %47, ptr %13, align 16, !tbaa !11
  call void @llvm.lifetime.start.p0(i64 16, ptr %14) #9
  %48 = load ptr, ptr %5, align 8, !tbaa !7
  %49 = load i32, ptr %9, align 4, !tbaa !9
  %50 = add nsw i32 %49, 12
  %51 = sext i32 %50 to i64
  %52 = getelementptr inbounds i32, ptr %48, i64 %51
  %53 = call <2 x i64> @_mm_loadu_si128(ptr noundef %52)
  store <2 x i64> %53, ptr %14, align 16, !tbaa !11
  call void @llvm.lifetime.start.p0(i64 16, ptr %15) #9
  %54 = load ptr, ptr %6, align 8, !tbaa !7
  %55 = load i32, ptr %9, align 4, !tbaa !9
  %56 = add nsw i32 %55, 0
  %57 = sext i32 %56 to i64
  %58 = getelementptr inbounds i32, ptr %54, i64 %57
  %59 = call <2 x i64> @_mm_loadu_si128(ptr noundef %58)
  store <2 x i64> %59, ptr %15, align 16, !tbaa !11
  call void @llvm.lifetime.start.p0(i64 16, ptr %16) #9
  %60 = load ptr, ptr %6, align 8, !tbaa !7
  %61 = load i32, ptr %9, align 4, !tbaa !9
  %62 = add nsw i32 %61, 4
  %63 = sext i32 %62 to i64
  %64 = getelementptr inbounds i32, ptr %60, i64 %63
  %65 = call <2 x i64> @_mm_loadu_si128(ptr noundef %64)
  store <2 x i64> %65, ptr %16, align 16, !tbaa !11
  call void @llvm.lifetime.start.p0(i64 16, ptr %17) #9
  %66 = load ptr, ptr %6, align 8, !tbaa !7
  %67 = load i32, ptr %9, align 4, !tbaa !9
  %68 = add nsw i32 %67, 8
  %69 = sext i32 %68 to i64
  %70 = getelementptr inbounds i32, ptr %66, i64 %69
  %71 = call <2 x i64> @_mm_loadu_si128(ptr noundef %70)
  store <2 x i64> %71, ptr %17, align 16, !tbaa !11
  call void @llvm.lifetime.start.p0(i64 16, ptr %18) #9
  %72 = load ptr, ptr %6, align 8, !tbaa !7
  %73 = load i32, ptr %9, align 4, !tbaa !9
  %74 = add nsw i32 %73, 12
  %75 = sext i32 %74 to i64
  %76 = getelementptr inbounds i32, ptr %72, i64 %75
  %77 = call <2 x i64> @_mm_loadu_si128(ptr noundef %76)
  store <2 x i64> %77, ptr %18, align 16, !tbaa !11
  %78 = load ptr, ptr %7, align 8, !tbaa !7
  %79 = load i32, ptr %9, align 4, !tbaa !9
  %80 = add nsw i32 %79, 0
  %81 = sext i32 %80 to i64
  %82 = getelementptr inbounds i32, ptr %78, i64 %81
  %83 = load <2 x i64>, ptr %11, align 16, !tbaa !11
  %84 = load <2 x i64>, ptr %15, align 16, !tbaa !11
  %85 = call <2 x i64> @_mm_add_epi32(<2 x i64> noundef %83, <2 x i64> noundef %84)
  call void @_mm_storeu_si128(ptr noundef %82, <2 x i64> noundef %85)
  %86 = load ptr, ptr %7, align 8, !tbaa !7
  %87 = load i32, ptr %9, align 4, !tbaa !9
  %88 = add nsw i32 %87, 4
  %89 = sext i32 %88 to i64
  %90 = getelementptr inbounds i32, ptr %86, i64 %89
  %91 = load <2 x i64>, ptr %12, align 16, !tbaa !11
  %92 = load <2 x i64>, ptr %16, align 16, !tbaa !11
  %93 = call <2 x i64> @_mm_add_epi32(<2 x i64> noundef %91, <2 x i64> noundef %92)
  call void @_mm_storeu_si128(ptr noundef %90, <2 x i64> noundef %93)
  %94 = load ptr, ptr %7, align 8, !tbaa !7
  %95 = load i32, ptr %9, align 4, !tbaa !9
  %96 = add nsw i32 %95, 8
  %97 = sext i32 %96 to i64
  %98 = getelementptr inbounds i32, ptr %94, i64 %97
  %99 = load <2 x i64>, ptr %13, align 16, !tbaa !11
  %100 = load <2 x i64>, ptr %17, align 16, !tbaa !11
  %101 = call <2 x i64> @_mm_add_epi32(<2 x i64> noundef %99, <2 x i64> noundef %100)
  call void @_mm_storeu_si128(ptr noundef %98, <2 x i64> noundef %101)
  %102 = load ptr, ptr %7, align 8, !tbaa !7
  %103 = load i32, ptr %9, align 4, !tbaa !9
  %104 = add nsw i32 %103, 12
  %105 = sext i32 %104 to i64
  %106 = getelementptr inbounds i32, ptr %102, i64 %105
  %107 = load <2 x i64>, ptr %14, align 16, !tbaa !11
  %108 = load <2 x i64>, ptr %18, align 16, !tbaa !11
  %109 = call <2 x i64> @_mm_add_epi32(<2 x i64> noundef %107, <2 x i64> noundef %108)
  call void @_mm_storeu_si128(ptr noundef %106, <2 x i64> noundef %109)
  %110 = load i32, ptr %9, align 4, !tbaa !9
  %111 = add nsw i32 %110, 16
  store i32 %111, ptr %9, align 4, !tbaa !9
  call void @llvm.lifetime.end.p0(i64 16, ptr %18) #9
  call void @llvm.lifetime.end.p0(i64 16, ptr %17) #9
  call void @llvm.lifetime.end.p0(i64 16, ptr %16) #9
  call void @llvm.lifetime.end.p0(i64 16, ptr %15) #9
  call void @llvm.lifetime.end.p0(i64 16, ptr %14) #9
  call void @llvm.lifetime.end.p0(i64 16, ptr %13) #9
  call void @llvm.lifetime.end.p0(i64 16, ptr %12) #9
  call void @llvm.lifetime.end.p0(i64 16, ptr %11) #9
  br label %112

112:                                              ; preds = %29
  %113 = load i32, ptr %9, align 4, !tbaa !9
  %114 = load i32, ptr %10, align 4, !tbaa !9
  %115 = icmp ne i32 %113, %114
  br i1 %115, label %29, label %116, !llvm.loop !27

116:                                              ; preds = %112
  %117 = load i32, ptr %8, align 4, !tbaa !9
  %118 = and i32 %117, 8
  %119 = icmp ne i32 %118, 0
  br i1 %119, label %120, label %163

120:                                              ; preds = %116
  call void @llvm.lifetime.start.p0(i64 16, ptr %19) #9
  %121 = load ptr, ptr %5, align 8, !tbaa !7
  %122 = load i32, ptr %9, align 4, !tbaa !9
  %123 = add nsw i32 %122, 0
  %124 = sext i32 %123 to i64
  %125 = getelementptr inbounds i32, ptr %121, i64 %124
  %126 = call <2 x i64> @_mm_loadu_si128(ptr noundef %125)
  store <2 x i64> %126, ptr %19, align 16, !tbaa !11
  call void @llvm.lifetime.start.p0(i64 16, ptr %20) #9
  %127 = load ptr, ptr %5, align 8, !tbaa !7
  %128 = load i32, ptr %9, align 4, !tbaa !9
  %129 = add nsw i32 %128, 4
  %130 = sext i32 %129 to i64
  %131 = getelementptr inbounds i32, ptr %127, i64 %130
  %132 = call <2 x i64> @_mm_loadu_si128(ptr noundef %131)
  store <2 x i64> %132, ptr %20, align 16, !tbaa !11
  call void @llvm.lifetime.start.p0(i64 16, ptr %21) #9
  %133 = load ptr, ptr %6, align 8, !tbaa !7
  %134 = load i32, ptr %9, align 4, !tbaa !9
  %135 = add nsw i32 %134, 0
  %136 = sext i32 %135 to i64
  %137 = getelementptr inbounds i32, ptr %133, i64 %136
  %138 = call <2 x i64> @_mm_loadu_si128(ptr noundef %137)
  store <2 x i64> %138, ptr %21, align 16, !tbaa !11
  call void @llvm.lifetime.start.p0(i64 16, ptr %22) #9
  %139 = load ptr, ptr %6, align 8, !tbaa !7
  %140 = load i32, ptr %9, align 4, !tbaa !9
  %141 = add nsw i32 %140, 4
  %142 = sext i32 %141 to i64
  %143 = getelementptr inbounds i32, ptr %139, i64 %142
  %144 = call <2 x i64> @_mm_loadu_si128(ptr noundef %143)
  store <2 x i64> %144, ptr %22, align 16, !tbaa !11
  %145 = load ptr, ptr %7, align 8, !tbaa !7
  %146 = load i32, ptr %9, align 4, !tbaa !9
  %147 = add nsw i32 %146, 0
  %148 = sext i32 %147 to i64
  %149 = getelementptr inbounds i32, ptr %145, i64 %148
  %150 = load <2 x i64>, ptr %19, align 16, !tbaa !11
  %151 = load <2 x i64>, ptr %21, align 16, !tbaa !11
  %152 = call <2 x i64> @_mm_add_epi32(<2 x i64> noundef %150, <2 x i64> noundef %151)
  call void @_mm_storeu_si128(ptr noundef %149, <2 x i64> noundef %152)
  %153 = load ptr, ptr %7, align 8, !tbaa !7
  %154 = load i32, ptr %9, align 4, !tbaa !9
  %155 = add nsw i32 %154, 4
  %156 = sext i32 %155 to i64
  %157 = getelementptr inbounds i32, ptr %153, i64 %156
  %158 = load <2 x i64>, ptr %20, align 16, !tbaa !11
  %159 = load <2 x i64>, ptr %22, align 16, !tbaa !11
  %160 = call <2 x i64> @_mm_add_epi32(<2 x i64> noundef %158, <2 x i64> noundef %159)
  call void @_mm_storeu_si128(ptr noundef %157, <2 x i64> noundef %160)
  %161 = load i32, ptr %9, align 4, !tbaa !9
  %162 = add nsw i32 %161, 8
  store i32 %162, ptr %9, align 4, !tbaa !9
  call void @llvm.lifetime.end.p0(i64 16, ptr %22) #9
  call void @llvm.lifetime.end.p0(i64 16, ptr %21) #9
  call void @llvm.lifetime.end.p0(i64 16, ptr %20) #9
  call void @llvm.lifetime.end.p0(i64 16, ptr %19) #9
  br label %163

163:                                              ; preds = %120, %116
  %164 = load i32, ptr %8, align 4, !tbaa !9
  %165 = and i32 %164, 7
  store i32 %165, ptr %8, align 4, !tbaa !9
  %166 = load i32, ptr %8, align 4, !tbaa !9
  %167 = icmp eq i32 %166, 4
  br i1 %167, label %168, label %186

168:                                              ; preds = %163
  call void @llvm.lifetime.start.p0(i64 16, ptr %23) #9
  %169 = load ptr, ptr %5, align 8, !tbaa !7
  %170 = load i32, ptr %9, align 4, !tbaa !9
  %171 = sext i32 %170 to i64
  %172 = getelementptr inbounds i32, ptr %169, i64 %171
  %173 = call <2 x i64> @_mm_loadu_si128(ptr noundef %172)
  store <2 x i64> %173, ptr %23, align 16, !tbaa !11
  call void @llvm.lifetime.start.p0(i64 16, ptr %24) #9
  %174 = load ptr, ptr %6, align 8, !tbaa !7
  %175 = load i32, ptr %9, align 4, !tbaa !9
  %176 = sext i32 %175 to i64
  %177 = getelementptr inbounds i32, ptr %174, i64 %176
  %178 = call <2 x i64> @_mm_loadu_si128(ptr noundef %177)
  store <2 x i64> %178, ptr %24, align 16, !tbaa !11
  %179 = load ptr, ptr %7, align 8, !tbaa !7
  %180 = load i32, ptr %9, align 4, !tbaa !9
  %181 = sext i32 %180 to i64
  %182 = getelementptr inbounds i32, ptr %179, i64 %181
  %183 = load <2 x i64>, ptr %23, align 16, !tbaa !11
  %184 = load <2 x i64>, ptr %24, align 16, !tbaa !11
  %185 = call <2 x i64> @_mm_add_epi32(<2 x i64> noundef %183, <2 x i64> noundef %184)
  call void @_mm_storeu_si128(ptr noundef %182, <2 x i64> noundef %185)
  call void @llvm.lifetime.end.p0(i64 16, ptr %24) #9
  call void @llvm.lifetime.end.p0(i64 16, ptr %23) #9
  br label %208

186:                                              ; preds = %163
  %187 = load i32, ptr %8, align 4, !tbaa !9
  %188 = icmp eq i32 %187, 2
  br i1 %188, label %189, label %207

189:                                              ; preds = %186
  call void @llvm.lifetime.start.p0(i64 16, ptr %25) #9
  %190 = load ptr, ptr %5, align 8, !tbaa !7
  %191 = load i32, ptr %9, align 4, !tbaa !9
  %192 = sext i32 %191 to i64
  %193 = getelementptr inbounds i32, ptr %190, i64 %192
  %194 = call <2 x i64> @_mm_loadl_epi64(ptr noundef %193)
  store <2 x i64> %194, ptr %25, align 16, !tbaa !11
  call void @llvm.lifetime.start.p0(i64 16, ptr %26) #9
  %195 = load ptr, ptr %6, align 8, !tbaa !7
  %196 = load i32, ptr %9, align 4, !tbaa !9
  %197 = sext i32 %196 to i64
  %198 = getelementptr inbounds i32, ptr %195, i64 %197
  %199 = call <2 x i64> @_mm_loadl_epi64(ptr noundef %198)
  store <2 x i64> %199, ptr %26, align 16, !tbaa !11
  %200 = load ptr, ptr %7, align 8, !tbaa !7
  %201 = load i32, ptr %9, align 4, !tbaa !9
  %202 = sext i32 %201 to i64
  %203 = getelementptr inbounds i32, ptr %200, i64 %202
  %204 = load <2 x i64>, ptr %25, align 16, !tbaa !11
  %205 = load <2 x i64>, ptr %26, align 16, !tbaa !11
  %206 = call <2 x i64> @_mm_add_epi32(<2 x i64> noundef %204, <2 x i64> noundef %205)
  call void @_mm_storel_epi64(ptr noundef %203, <2 x i64> noundef %206)
  call void @llvm.lifetime.end.p0(i64 16, ptr %26) #9
  call void @llvm.lifetime.end.p0(i64 16, ptr %25) #9
  br label %207

207:                                              ; preds = %189, %186
  br label %208

208:                                              ; preds = %207, %168
  call void @llvm.lifetime.end.p0(i64 4, ptr %10) #9
  call void @llvm.lifetime.end.p0(i64 4, ptr %9) #9
  ret void
}