; Function Attrs: nofree norecurse nosync nounwind memory(argmem: readwrite) uwtable
define internal void @AddVector_SSE2(ptr noalias noundef readonly captures(none) %0, ptr noalias noundef readonly captures(none) %1, ptr noalias noundef writeonly captures(none) %2, i32 noundef %3) #2 {
  %5 = and i32 %3, -16
  %6 = zext i32 %5 to i64
  br label %7

7:                                                ; preds = %7, %4
  %indvars.iv = phi i64 [ %indvars.iv.next, %7 ], [ 0, %4 ]
  %8 = getelementptr inbounds nuw i32, ptr %0, i64 %indvars.iv
  %9 = load <4 x i32>, ptr %8, align 1, !tbaa !7
  %10 = or disjoint i64 %indvars.iv, 4
  %11 = getelementptr inbounds nuw i32, ptr %0, i64 %10
  %12 = load <4 x i32>, ptr %11, align 1, !tbaa !7
  %13 = or disjoint i64 %indvars.iv, 8
  %14 = getelementptr inbounds nuw i32, ptr %0, i64 %13
  %15 = load <4 x i32>, ptr %14, align 1, !tbaa !7
  %16 = or disjoint i64 %indvars.iv, 12
  %17 = getelementptr inbounds nuw i32, ptr %0, i64 %16
  %18 = load <4 x i32>, ptr %17, align 1, !tbaa !7
  %19 = getelementptr inbounds nuw i32, ptr %1, i64 %indvars.iv
  %20 = load <4 x i32>, ptr %19, align 1, !tbaa !7
  %21 = getelementptr inbounds nuw i32, ptr %1, i64 %10
  %22 = load <4 x i32>, ptr %21, align 1, !tbaa !7
  %23 = getelementptr inbounds nuw i32, ptr %1, i64 %13
  %24 = load <4 x i32>, ptr %23, align 1, !tbaa !7
  %25 = getelementptr inbounds nuw i32, ptr %1, i64 %16
  %26 = load <4 x i32>, ptr %25, align 1, !tbaa !7
  %27 = getelementptr inbounds nuw i32, ptr %2, i64 %indvars.iv
  %28 = add <4 x i32> %20, %9
  store <4 x i32> %28, ptr %27, align 1, !tbaa !7
  %29 = getelementptr inbounds nuw i32, ptr %2, i64 %10
  %30 = add <4 x i32> %22, %12
  store <4 x i32> %30, ptr %29, align 1, !tbaa !7
  %31 = getelementptr inbounds nuw i32, ptr %2, i64 %13
  %32 = add <4 x i32> %24, %15
  store <4 x i32> %32, ptr %31, align 1, !tbaa !7
  %33 = getelementptr inbounds nuw i32, ptr %2, i64 %16
  %34 = add <4 x i32> %26, %18
  store <4 x i32> %34, ptr %33, align 1, !tbaa !7
  %indvars.iv.next = add nuw nsw i64 %indvars.iv, 16
  %.not = icmp eq i64 %indvars.iv.next, %6
  br i1 %.not, label %35, label %7, !llvm.loop !25

35:                                               ; preds = %7
  %36 = and i32 %3, 8
  %.not74 = icmp eq i32 %36, 0
  br i1 %.not74, label %54, label %37

37:                                               ; preds = %35
  %38 = trunc nuw nsw i64 %indvars.iv to i32
  %39 = getelementptr inbounds nuw i32, ptr %0, i64 %6
  %40 = load <4 x i32>, ptr %39, align 1, !tbaa !7
  %41 = add nuw i64 %indvars.iv, 20
  %42 = and i64 %41, 4294967284
  %43 = getelementptr inbounds nuw i32, ptr %0, i64 %42
  %44 = load <4 x i32>, ptr %43, align 1, !tbaa !7
  %45 = getelementptr inbounds nuw i32, ptr %1, i64 %6
  %46 = load <4 x i32>, ptr %45, align 1, !tbaa !7
  %47 = getelementptr inbounds nuw i32, ptr %1, i64 %42
  %48 = load <4 x i32>, ptr %47, align 1, !tbaa !7
  %49 = getelementptr inbounds nuw i32, ptr %2, i64 %6
  %50 = add <4 x i32> %46, %40
  store <4 x i32> %50, ptr %49, align 1, !tbaa !7
  %51 = getelementptr inbounds nuw i32, ptr %2, i64 %42
  %52 = add <4 x i32> %48, %44
  store <4 x i32> %52, ptr %51, align 1, !tbaa !7
  %53 = add nuw nsw i32 %38, 24
  br label %54

54:                                               ; preds = %37, %35
  %.1 = phi i32 [ %53, %37 ], [ %5, %35 ]
  %55 = and i32 %3, 7
  switch i32 %55, label %78 [
    i32 4, label %56
    i32 2, label %64
  ]

56:                                               ; preds = %54
  %57 = sext i32 %.1 to i64
  %58 = getelementptr inbounds i32, ptr %0, i64 %57
  %59 = load <4 x i32>, ptr %58, align 1, !tbaa !7
  %60 = getelementptr inbounds i32, ptr %1, i64 %57
  %61 = load <4 x i32>, ptr %60, align 1, !tbaa !7
  %62 = getelementptr inbounds i32, ptr %2, i64 %57
  %63 = add <4 x i32> %61, %59
  store <4 x i32> %63, ptr %62, align 1, !tbaa !7
  br label %78

64:                                               ; preds = %54
  %65 = sext i32 %.1 to i64
  %66 = getelementptr inbounds i32, ptr %0, i64 %65
  %67 = load i64, ptr %66, align 1, !tbaa !7
  %68 = insertelement <2 x i64> poison, i64 %67, i64 0
  %69 = getelementptr inbounds i32, ptr %1, i64 %65
  %70 = load i64, ptr %69, align 1, !tbaa !7
  %71 = insertelement <2 x i64> poison, i64 %70, i64 0
  %72 = getelementptr inbounds i32, ptr %2, i64 %65
  %73 = bitcast <2 x i64> %68 to <4 x i32>
  %74 = bitcast <2 x i64> %71 to <4 x i32>
  %75 = add <4 x i32> %74, %73
  %76 = bitcast <4 x i32> %75 to <2 x i64>
  %77 = extractelement <2 x i64> %76, i64 0
  store i64 %77, ptr %72, align 1, !tbaa !7
  br label %78

78:                                               ; preds = %54, %64, %56
  ret void
}